; Function Attrs: mustprogress nounwind uwtable
define dso_local void @_ZN5clang6format17WhitespaceManager22alignArrayInitializersEjj(ptr noundef nonnull align 8 dereferenceable(2257) %0, i32 noundef %1, i32 noundef %2) local_unnamed_addr #0 align 2 {
  %4 = alloca %"struct.clang::format::WhitespaceManager::CellDescriptions", align 8
  %5 = alloca %"struct.clang::format::WhitespaceManager::CellDescriptions", align 8
  %6 = getelementptr inbounds nuw i8, ptr %0, i64 2248
  %7 = load ptr, ptr %6, align 8
  %8 = getelementptr inbounds nuw i8, ptr %7, i64 9
  %9 = load i8, ptr %8, align 1
  switch i8 %9, label %_ZN5clang6format17WhitespaceManager16CellDescriptionsD2Ev.exit [
    i8 1, label %10
    i8 0, label %21
  ]

10:                                               ; preds = %3
  call void @_ZN5clang6format17WhitespaceManager8getCellsEjj(ptr dead_on_unwind nonnull writable sret(%"struct.clang::format::WhitespaceManager::CellDescriptions") align 8 %4, ptr noundef nonnull align 8 dereferenceable(2257) %0, i32 noundef %1, i32 noundef %2)
  call void @_ZN5clang6format17WhitespaceManager36alignArrayInitializersRightJustifiedEONS1_16CellDescriptionsE(ptr noundef nonnull align 8 dereferenceable(2257) %0, ptr noundef nonnull align 8 dereferenceable(132) %4)
  %11 = getelementptr inbounds nuw i8, ptr %4, i64 64
  %12 = call noundef i64 @_ZNK4llvm15SmallVectorBaseIjE4sizeEv(ptr noundef nonnull align 8 dereferenceable(16) %11) #18
  %13 = load ptr, ptr %11, align 8
  %14 = getelementptr inbounds i8, ptr %4, i64 80
  %15 = icmp eq ptr %13, %14
  br i1 %15, label %_ZN4llvm11SmallVectorIjLj12EED2Ev.exit.i, label %16

16:                                               ; preds = %10
  call void @free(ptr noundef %13) #18
  br label %_ZN4llvm11SmallVectorIjLj12EED2Ev.exit.i

_ZN4llvm11SmallVectorIjLj12EED2Ev.exit.i:         ; preds = %16, %10
  %17 = call noundef i64 @_ZNK4llvm15SmallVectorBaseIjE4sizeEv(ptr noundef nonnull align 8 dereferenceable(16) %4) #18
  %18 = load ptr, ptr %4, align 8
  %19 = getelementptr inbounds i8, ptr %4, i64 16
  %20 = icmp eq ptr %18, %19
  br i1 %20, label %_ZN5clang6format17WhitespaceManager16CellDescriptionsD2Ev.exit, label %_ZN5clang6format17WhitespaceManager16CellDescriptionsD2Ev.exit.sink.split

21:                                               ; preds = %3
  call void @_ZN5clang6format17WhitespaceManager8getCellsEjj(ptr dead_on_unwind nonnull writable sret(%"struct.clang::format::WhitespaceManager::CellDescriptions") align 8 %5, ptr noundef nonnull align 8 dereferenceable(2257) %0, i32 noundef %1, i32 noundef %2)
  call void @_ZN5clang6format17WhitespaceManager35alignArrayInitializersLeftJustifiedEONS1_16CellDescriptionsE(ptr noundef nonnull align 8 dereferenceable(2257) %0, ptr noundef nonnull align 8 dereferenceable(132) %5)
  %22 = getelementptr inbounds nuw i8, ptr %5, i64 64
  %23 = call noundef i64 @_ZNK4llvm15SmallVectorBaseIjE4sizeEv(ptr noundef nonnull align 8 dereferenceable(16) %22) #18
  %24 = load ptr, ptr %22, align 8
  %25 = getelementptr inbounds i8, ptr %5, i64 80
  %26 = icmp eq ptr %24, %25
  br i1 %26, label %_ZN4llvm11SmallVectorIjLj12EED2Ev.exit.i4, label %27

27:                                               ; preds = %21
  call void @free(ptr noundef %24) #18
  br label %_ZN4llvm11SmallVectorIjLj12EED2Ev.exit.i4

_ZN4llvm11SmallVectorIjLj12EED2Ev.exit.i4:        ; preds = %27, %21
  %28 = call noundef i64 @_ZNK4llvm15SmallVectorBaseIjE4sizeEv(ptr noundef nonnull align 8 dereferenceable(16) %5) #18
  %29 = load ptr, ptr %5, align 8
  %30 = getelementptr inbounds i8, ptr %5, i64 16
  %31 = icmp eq ptr %29, %30
  br i1 %31, label %_ZN5clang6format17WhitespaceManager16CellDescriptionsD2Ev.exit, label %_ZN5clang6format17WhitespaceManager16CellDescriptionsD2Ev.exit.sink.split

_ZN5clang6format17WhitespaceManager16CellDescriptionsD2Ev.exit.sink.split: ; preds = %_ZN4llvm11SmallVectorIjLj12EED2Ev.exit.i4, %_ZN4llvm11SmallVectorIjLj12EED2Ev.exit.i
  %.sink = phi ptr [ %18, %_ZN4llvm11SmallVectorIjLj12EED2Ev.exit.i ], [ %29, %_ZN4llvm11SmallVectorIjLj12EED2Ev.exit.i4 ]
  call void @free(ptr noundef %.sink) #18
  br label %_ZN5clang6format17WhitespaceManager16CellDescriptionsD2Ev.exit

_ZN5clang6format17WhitespaceManager16CellDescriptionsD2Ev.exit: ; preds = %_ZN5clang6format17WhitespaceManager16CellDescriptionsD2Ev.exit.sink.split, %_ZN4llvm11SmallVectorIjLj12EED2Ev.exit.i4, %_ZN4llvm11SmallVectorIjLj12EED2Ev.exit.i, %3
  ret void
}